
temp:     file format elf32-littleriscv


Disassembly of section .init:

00000000 <_start>:
   0:	20001197          	auipc	gp,0x20001
   4:	80018193          	addi	gp,gp,-2048 # 20000800 <__global_pointer$>
   8:	c0018113          	addi	sp,gp,-1024 # 20000400 <__freertos_irq_stack_top>
   c:	0b400513          	li	a0,180
  10:	20000597          	auipc	a1,0x20000
  14:	ff058593          	addi	a1,a1,-16 # 20000000 <__bss_start>
  18:	20000617          	auipc	a2,0x20000
  1c:	fe860613          	addi	a2,a2,-24 # 20000000 <__bss_start>
  20:	00c5fc63          	bgeu	a1,a2,38 <_start+0x38>
  24:	00052283          	lw	t0,0(a0)
  28:	0055a023          	sw	t0,0(a1)
  2c:	00450513          	addi	a0,a0,4
  30:	00458593          	addi	a1,a1,4
  34:	fec5e8e3          	bltu	a1,a2,24 <_start+0x24>
  38:	20000517          	auipc	a0,0x20000
  3c:	fc850513          	addi	a0,a0,-56 # 20000000 <__bss_start>
  40:	20000597          	auipc	a1,0x20000
  44:	fc058593          	addi	a1,a1,-64 # 20000000 <__bss_start>
  48:	00b57863          	bgeu	a0,a1,58 <_start+0x58>
  4c:	00052023          	sw	zero,0(a0)
  50:	00450513          	addi	a0,a0,4
  54:	feb56ce3          	bltu	a0,a1,4c <_start+0x4c>
  58:	008000ef          	jal	ra,60 <main>

0000005c <loop>:
  5c:	0000006f          	j	5c <loop>

Disassembly of section .text:

00000060 <main>:
  60:	fe010113          	addi	sp,sp,-32
  64:	00812e23          	sw	s0,28(sp)
  68:	02010413          	addi	s0,sp,32
  6c:	00100793          	li	a5,1
  70:	fef42623          	sw	a5,-20(s0)
  74:	fec42783          	lw	a5,-20(s0)
  78:	00179793          	slli	a5,a5,0x1
  7c:	fef42623          	sw	a5,-20(s0)
  80:	fec42703          	lw	a4,-20(s0)
  84:	000107b7          	lui	a5,0x10
  88:	00f71663          	bne	a4,a5,94 <main+0x34>
  8c:	00100793          	li	a5,1
  90:	fef42623          	sw	a5,-20(s0)
  94:	400007b7          	lui	a5,0x40000
  98:	fec42703          	lw	a4,-20(s0)
  9c:	00e7a023          	sw	a4,0(a5) # 40000000 <__global_pointer$+0x1ffff800>
  a0:	fe042423          	sw	zero,-24(s0)
  a4:	0100006f          	j	b4 <main+0x54>
  a8:	fe842783          	lw	a5,-24(s0)
  ac:	00178793          	addi	a5,a5,1
  b0:	fef42423          	sw	a5,-24(s0)
  b4:	fe842703          	lw	a4,-24(s0)
  b8:	0007a7b7          	lui	a5,0x7a
  bc:	12078793          	addi	a5,a5,288 # 7a120 <__stack_size+0x72120>
  c0:	fef714e3          	bne	a4,a5,a8 <main+0x48>
  c4:	fb1ff06f          	j	74 <main+0x14>

Disassembly of section .stack:

20000000 <__freertos_irq_stack_top-0x400>:
	...

Disassembly of section .comment:

00000000 <.comment>:
   0:	3a434347          	fmsub.d	ft6,ft6,ft4,ft7,rmm
   4:	2820                	fld	fs0,80(s0)
   6:	5078                	lw	a4,100(s0)
   8:	6361                	lui	t1,0x18
   a:	4e47206b          	0x4e47206b
   e:	2055                	jal	b2 <main+0x52>
  10:	4952                	lw	s2,20(sp)
  12:	562d4353          	0x562d4353
  16:	4520                	lw	s0,72(a0)
  18:	626d                	lui	tp,0x1b
  1a:	6465                	lui	s0,0x19
  1c:	6564                	flw	fs1,76(a0)
  1e:	2064                	fld	fs1,192(s0)
  20:	20434347          	fmsub.s	ft6,ft6,ft4,ft4,rmm
  24:	3878                	fld	fa4,240(s0)
  26:	5f36                	lw	t5,108(sp)
  28:	3436                	fld	fs0,360(sp)
  2a:	2029                	jal	34 <_start+0x34>
  2c:	3031                	jal	fffff838 <__global_pointer$+0xdffff038>
  2e:	322e                	fld	ft4,232(sp)
  30:	302e                	fld	ft0,232(sp)
	...
