
temp:     file format elf32-littleriscv


Disassembly of section .init:

00000000 <_start>:
   0:	20001197          	auipc	gp,0x20001
   4:	80018193          	addi	gp,gp,-2048 # 20000800 <__global_pointer$>
   8:	c0018113          	addi	sp,gp,-1024 # 20000400 <__freertos_irq_stack_top>
   c:	0b400513          	li	a0,180
  10:	20000597          	auipc	a1,0x20000
  14:	ff058593          	addi	a1,a1,-16 # 20000000 <__bss_start>
  18:	20000617          	auipc	a2,0x20000
  1c:	fe860613          	addi	a2,a2,-24 # 20000000 <__bss_start>
  20:	00c5fc63          	bgeu	a1,a2,38 <_start+0x38>
  24:	00052283          	lw	t0,0(a0)
  28:	0055a023          	sw	t0,0(a1)
  2c:	00450513          	addi	a0,a0,4
  30:	00458593          	addi	a1,a1,4
  34:	fec5e8e3          	bltu	a1,a2,24 <_start+0x24>
  38:	20000517          	auipc	a0,0x20000
  3c:	fc850513          	addi	a0,a0,-56 # 20000000 <__bss_start>
  40:	20000597          	auipc	a1,0x20000
  44:	fc058593          	addi	a1,a1,-64 # 20000000 <__bss_start>
  48:	00b57863          	bgeu	a0,a1,58 <_start+0x58>
  4c:	00052023          	sw	zero,0(a0)
  50:	00450513          	addi	a0,a0,4
  54:	feb56ce3          	bltu	a0,a1,4c <_start+0x4c>
  58:	008000ef          	jal	ra,60 <main>

0000005c <loop>:
  5c:	0000006f          	j	5c <loop>

Disassembly of section .text:

00000060 <main>:
  60:	fe010113          	addi	sp,sp,-32
  64:	00812e23          	sw	s0,28(sp)
  68:	02010413          	addi	s0,sp,32
  6c:	fe042423          	sw	zero,-24(s0)
  70:	fe042623          	sw	zero,-20(s0)
  74:	0200006f          	j	94 <main+0x34>
  78:	fe842703          	lw	a4,-24(s0)
  7c:	fec42783          	lw	a5,-20(s0)
  80:	00f707b3          	add	a5,a4,a5
  84:	fef42423          	sw	a5,-24(s0)
  88:	fec42783          	lw	a5,-20(s0)
  8c:	00178793          	addi	a5,a5,1
  90:	fef42623          	sw	a5,-20(s0)
  94:	fec42703          	lw	a4,-20(s0)
  98:	06400793          	li	a5,100
  9c:	fce7dee3          	bge	a5,a4,78 <main+0x18>
  a0:	00000793          	li	a5,0
  a4:	00078513          	mv	a0,a5
  a8:	01c12403          	lw	s0,28(sp)
  ac:	02010113          	addi	sp,sp,32
  b0:	00008067          	ret

Disassembly of section .stack:

20000000 <__freertos_irq_stack_top-0x400>:
	...

Disassembly of section .comment:

00000000 <.comment>:
   0:	3a434347          	fmsub.d	ft6,ft6,ft4,ft7,rmm
   4:	2820                	fld	fs0,80(s0)
   6:	20554e47          	fmsub.s	ft8,fa0,ft5,ft4,rmm
   a:	434d                	li	t1,19
   c:	2055                	jal	b0 <main+0x50>
   e:	6345                	lui	t1,0x11
  10:	696c                	flw	fa1,84(a0)
  12:	7370                	flw	fa2,100(a4)
  14:	2065                	jal	bc <_data_lma+0x8>
  16:	4952                	lw	s2,20(sp)
  18:	562d4353          	0x562d4353
  1c:	4520                	lw	s0,72(a0)
  1e:	626d                	lui	tp,0x1b
  20:	6465                	lui	s0,0x19
  22:	6564                	flw	fs1,76(a0)
  24:	2064                	fld	fs1,192(s0)
  26:	2c434347          	0x2c434347
  2a:	3620                	fld	fs0,104(a2)
  2c:	2d34                	fld	fa3,88(a0)
  2e:	6962                	flw	fs2,24(sp)
  30:	2974                	fld	fa3,208(a0)
  32:	3820                	fld	fs0,112(s0)
  34:	322e                	fld	ft4,232(sp)
  36:	302e                	fld	ft0,232(sp)
	...
